; Function Attrs: nounwind uwtable
define dso_local i64 @bufferevent_get_mbedtls_error(ptr noundef %0) local_unnamed_addr #0 {
  %2 = tail call ptr @bufferevent_ssl_upcast(ptr noundef %0) #5
  %.not = icmp eq ptr %2, null
  br i1 %.not, label %5, label %3

3:                                                ; preds = %1
  %4 = tail call i64 @bufferevent_get_ssl_error(ptr noundef %0) #5
  br label %5

5:                                                ; preds = %1, %3
  %.0 = phi i64 [ %4, %3 ], [ 0, %1 ]
  ret i64 %.0
}